(lp1
(lp2
I3
aI0
aI3
aI15
aa(lp3
I10
aI1
aI4
aI33
aa(lp4
I10
aI2
aI7
aI50
aa(lp5
I6
aI1
aI3
aI23
aa(lp6
I9
aI2
aI4
aI33
aa(lp7
I8
aI0
aI5
aI32
aa(lp8
I6
aI0
aI4
aI24
aa(lp9
I9
aI0
aI4
aI31
aa(lp10
I2
aI0
aI2
aI10
aa(lp11
I8
aI2
aI4
aI30
aa(lp12
I6
aI1
aI6
aI33
aa(lp13
I11
aI1
aI9
aI53
aa(lp14
I9
aI1
aI3
aI29
aa(lp15
I8
aI1
aI5
aI35
aa(lp16
I5
aI0
aI7
aI33
aa(lp17
I6
aI0
aI5
aI27
aa(lp18
I13
aI2
aI9
aI60
aa(lp19
I6
aI1
aI4
aI28
aa(lp20
I13
aI1
aI8
aI54
aa(lp21
I26
aI6
aI11
aI100
aa(lp22
I3
aI0
aI3
aI14
aa(lp23
I11
aI1
aI8
aI49
aa(lp24
I14
aI2
aI7
aI56
aa(lp25
I15
aI2
aI8
aI58
aa(lp26
I16
aI2
aI8
aI64
aa(lp27
I5
aI1
aI4
aI24
aa(lp28
I17
aI2
aI9
aI66
aa(lp29
I14
aI0
aI9
aI56
aa(lp30
I8
aI2
aI4
aI32
aa(lp31
I12
aI3
aI5
aI47
aa(lp32
I13
aI2
aI6
aI49
aa(lp33
I18
aI5
aI7
aI69
aa(lp34
I9
aI1
aI6
aI40
aa(lp35
I6
aI0
aI5
aI27
aa(lp36
I9
aI2
aI4
aI35
aa(lp37
I15
aI2
aI7
aI55
aa(lp38
I13
aI3
aI9
aI61
aa(lp39
I14
aI2
aI5
aI45
aa(lp40
I10
aI2
aI5
aI40
aa(lp41
I11
aI1
aI6
aI42
aa(lp42
I15
aI3
aI7
aI57
aa(lp43
I8
aI0
aI8
aI41
aa(lp44
I6
aI0
aI6
aI30
aa(lp45
I8
aI0
aI4
aI29
aa(lp46
I7
aI0
aI5
aI29
aa(lp47
I11
aI1
aI4
aI35
aa(lp48
I12
aI5
aI7
aI57
aa(lp49
I10
aI1
aI5
aI38
aa(lp50
I14
aI2
aI7
aI53
aa(lp51
I13
aI3
aI5
aI45
aa(lp52
I6
aI1
aI3
aI23
aa(lp53
I8
aI1
aI7
aI40
aa(lp54
I5
aI1
aI2
aI17
aa(lp55
I13
aI4
aI5
aI48
aa(lp56
I16
aI2
aI6
aI55
aa(lp57
I9
aI0
aI6
aI35
aa(lp58
I15
aI3
aI7
aI60
aa(lp59
I9
aI0
aI3
aI26
aa(lp60
I13
aI1
aI8
aI52
aa(lp61
I10
aI3
aI6
aI44
aa(lp62
I13
aI3
aI9
aI60
aa(lp63
I13
aI1
aI6
aI48
aa(lp64
I5
aI1
aI3
aI20
aa(lp65
I16
aI3
aI6
aI55
aa(lp66
I7
aI1
aI4
aI28
aa(lp67
I11
aI0
aI10
aI55
aa(lp68
I5
aI0
aI2
aI14
aa(lp69
I11
aI1
aI7
aI46
aa(lp70
I12
aI1
aI5
aI41
aa(lp71
I11
aI1
aI5
aI40
aa(lp72
I9
aI1
aI6
aI39
aa(lp73
I3
aI0
aI3
aI14
aa(lp74
I9
aI0
aI6
aI35
aa(lp75
I8
aI2
aI5
aI34
aa(lp76
I8
aI1
aI7
aI41
aa(lp77
I2
aI0
aI1
aI6
aa(lp78
I7
aI1
aI5
aI31
aa(lp79
I5
aI0
aI5
aI25
aa(lp80
I9
aI1
aI5
aI37
aa(lp81
I21
aI4
aI10
aI87
aa(lp82
I9
aI3
aI4
aI35
aa(lp83
I6
aI0
aI6
aI32
aa(lp84
I15
aI2
aI7
aI57
aa(lp85
I13
aI2
aI6
aI47
aa(lp86
I11
aI0
aI6
aI41
aa(lp87
I12
aI1
aI5
aI40
aa(lp88
I9
aI2
aI3
aI30
aa(lp89
I6
aI1
aI4
aI25
aa(lp90
I10
aI0
aI8
aI45
aa(lp91
I11
aI1
aI4
aI36
aa(lp92
I3
aI0
aI3
aI15
aa(lp93
I8
aI2
aI5
aI37
aa(lp94
I12
aI0
aI9
aI56
aa(lp95
I14
aI3
aI5
aI48
aa(lp96
I8
aI0
aI6
aI36
aa(lp97
I19
aI5
aI12
aI98
aa(lp98
I7
aI2
aI3
aI26
aa(lp99
I6
aI1
aI3
aI22
aa(lp100
I12
aI3
aI6
aI48
aa(lp101
I17
aI4
aI11
aI79
aa(lp102
I14
aI1
aI11
aI66
aa(lp103
I10
aI1
aI5
aI36
aa(lp104
I8
aI1
aI6
aI37
aa(lp105
I7
aI0
aI6
aI31
aa(lp106
I18
aI2
aI7
aI62
aa(lp107
I8
aI1
aI4
aI30
aa(lp108
I8
aI2
aI6
aI38
aa(lp109
I3
aI0
aI4
aI18
aa(lp110
I18
aI1
aI15
aI86
aa(lp111
I16
aI3
aI10
aI70
aa(lp112
I10
aI2
aI4
aI34
aa(lp113
I5
aI0
aI4
aI22
aa(lp114
I9
aI0
aI7
aI40
aa(lp115
I12
aI1
aI7
aI48
aa(lp116
I9
aI2
aI6
aI42
aa.